; Function Attrs: nofree nosync nounwind memory(readwrite, inaccessiblemem: none) uwtable
define void @Hop_ObjCleanData_rec(ptr noundef captures(none) initializes((0, 8)) %0) local_unnamed_addr #2 {
  %2 = getelementptr i8, ptr %0, i64 32
  %.val = load i32, ptr %2, align 8
  %3 = and i32 %.val, 7
  %.not = icmp eq i32 %3, 4
  br i1 %.not, label %4, label %13

4:                                                ; preds = %1
  %5 = getelementptr i8, ptr %0, i64 16
  %.val4 = load ptr, ptr %5, align 8, !tbaa !29
  %6 = ptrtoint ptr %.val4 to i64
  %7 = and i64 %6, -2
  %8 = inttoptr i64 %7 to ptr
  tail call void @Hop_ObjCleanData_rec(ptr noundef %8)
  %9 = getelementptr i8, ptr %0, i64 24
  %.val5 = load ptr, ptr %9, align 8, !tbaa !30
  %10 = ptrtoint ptr %.val5 to i64
  %11 = and i64 %10, -2
  %12 = inttoptr i64 %11 to ptr
  tail call void @Hop_ObjCleanData_rec(ptr noundef %12)
  br label %13

13:                                               ; preds = %4, %1
  store ptr null, ptr %0, align 8, !tbaa !15
  ret void
}